target datalayout = "e-m:e-p270:32:32-p271:32:32-p272:64:64-i64:64-i128:128-f80:128-n8:16:32:64-S128"
target triple = "x86_64-pc-linux-gnu"

@.str.6 = private unnamed_addr constant [12 x i8] c"target-path\00", align 1
@.str.7 = private unnamed_addr constant [7 x i8] c"target\00", align 1

; Function Attrs: inlinehint nounwind uwtable
define internal i32 @fdt32_to_cpu(i32 noundef %0) #3 {
  %2 = alloca i32, align 4
  store i32 %0, ptr %2, align 4
  %3 = getelementptr inbounds i8, ptr %2, i64 0
  %4 = load i8, ptr %3, align 4
  %5 = zext i8 %4 to i64
  %6 = shl i64 %5, 24
  %7 = getelementptr inbounds i8, ptr %2, i64 1
  %8 = load i8, ptr %7, align 1
  %9 = zext i8 %8 to i64
  %10 = shl i64 %9, 16
  %11 = or i64 %6, %10
  %12 = getelementptr inbounds i8, ptr %2, i64 2
  %13 = load i8, ptr %12, align 2
  %14 = zext i8 %13 to i64
  %15 = shl i64 %14, 8
  %16 = or i64 %11, %15
  %17 = getelementptr inbounds i8, ptr %2, i64 3
  %18 = load i8, ptr %17, align 1
  %19 = zext i8 %18 to i64
  %20 = or i64 %16, %19
  %21 = trunc i64 %20 to i32
  ret i32 %21
}

; Function Attrs: nounwind uwtable
define internal i32 @overlay_get_target_phandle(ptr noundef %0, i32 noundef %1) #0 {
  %3 = alloca i32, align 4
  %4 = alloca ptr, align 8
  %5 = alloca i32, align 4
  %6 = alloca ptr, align 8
  %7 = alloca i32, align 4
  %8 = alloca i32, align 4
  store ptr %0, ptr %4, align 8
  store i32 %1, ptr %5, align 4
  call void @llvm.lifetime.start.p0(i64 8, ptr %6) #7
  store ptr null, ptr %6, align 8, !annotation !4
  call void @llvm.lifetime.start.p0(i64 4, ptr %7) #7
  store i32 0, ptr %7, align 4, !annotation !4
  %9 = load ptr, ptr %4, align 8
  %10 = load i32, ptr %5, align 4
  %11 = call ptr @fdt_getprop(ptr noundef %9, i32 noundef %10, ptr noundef @.str.7, ptr noundef %7)
  store ptr %11, ptr %6, align 8
  %12 = load ptr, ptr %6, align 8
  %13 = icmp ne ptr %12, null
  br i1 %13, label %15, label %14

14:                                               ; preds = %2
  store i32 0, ptr %3, align 4
  store i32 1, ptr %8, align 4
  br label %29

15:                                               ; preds = %2
  %16 = load i32, ptr %7, align 4
  %17 = sext i32 %16 to i64
  %18 = icmp ne i64 %17, 4
  br i1 %18, label %24, label %19

19:                                               ; preds = %15
  %20 = load ptr, ptr %6, align 8
  %21 = load i32, ptr %20, align 4
  %22 = call i32 @fdt32_to_cpu(i32 noundef %21)
  %23 = icmp eq i32 %22, -1
  br i1 %23, label %24, label %25

24:                                               ; preds = %19, %15
  store i32 -1, ptr %3, align 4
  store i32 1, ptr %8, align 4
  br label %29

25:                                               ; preds = %19
  %26 = load ptr, ptr %6, align 8
  %27 = load i32, ptr %26, align 4
  %28 = call i32 @fdt32_to_cpu(i32 noundef %27)
  store i32 %28, ptr %3, align 4
  store i32 1, ptr %8, align 4
  br label %29

29:                                               ; preds = %25, %24, %14
  call void @llvm.lifetime.end.p0(i64 4, ptr %7) #7
  call void @llvm.lifetime.end.p0(i64 8, ptr %6) #7
  %30 = load i32, ptr %3, align 4
  ret i32 %30
}

; Function Attrs: nounwind uwtable
define internal i32 @overlay_get_target(ptr noundef %0, ptr noundef %1, i32 noundef %2, ptr noundef %3) #0 {
  %5 = alloca i32, align 4
  %6 = alloca ptr, align 8
  %7 = alloca ptr, align 8
  %8 = alloca i32, align 4
  %9 = alloca ptr, align 8
  %10 = alloca i32, align 4
  %11 = alloca ptr, align 8
  %12 = alloca i32, align 4
  %13 = alloca i32, align 4
  %14 = alloca i32, align 4
  store ptr %0, ptr %6, align 8
  store ptr %1, ptr %7, align 8
  store i32 %2, ptr %8, align 4
  store ptr %3, ptr %9, align 8
  call void @llvm.lifetime.start.p0(i64 4, ptr %10) #7
  store i32 0, ptr %10, align 4, !annotation !4
  call void @llvm.lifetime.start.p0(i64 8, ptr %11) #7
  store ptr null, ptr %11, align 8
  call void @llvm.lifetime.start.p0(i64 4, ptr %12) #7
  store i32 0, ptr %12, align 4
  call void @llvm.lifetime.start.p0(i64 4, ptr %13) #7
  store i32 0, ptr %13, align 4, !annotation !4
  %15 = load ptr, ptr %7, align 8
  %16 = load i32, ptr %8, align 4
  %17 = call i32 @overlay_get_target_phandle(ptr noundef %15, i32 noundef %16)
  store i32 %17, ptr %10, align 4
  %18 = load i32, ptr %10, align 4
  %19 = icmp eq i32 %18, -1
  br i1 %19, label %20, label %21

20:                                               ; preds = %4
  store i32 -6, ptr %5, align 4
  store i32 1, ptr %14, align 4
  br label %67

21:                                               ; preds = %4
  %22 = load i32, ptr %10, align 4
  %23 = icmp ne i32 %22, 0
  br i1 %23, label %37, label %24

24:                                               ; preds = %21
  %25 = load ptr, ptr %7, align 8
  %26 = load i32, ptr %8, align 4
  %27 = call ptr @fdt_getprop(ptr noundef %25, i32 noundef %26, ptr noundef @.str.6, ptr noundef %12)
  store ptr %27, ptr %11, align 8
  %28 = load ptr, ptr %11, align 8
  %29 = icmp ne ptr %28, null
  br i1 %29, label %30, label %34

30:                                               ; preds = %24
  %31 = load ptr, ptr %6, align 8
  %32 = load ptr, ptr %11, align 8
  %33 = call i32 @fdt_path_offset(ptr noundef %31, ptr noundef %32)
  store i32 %33, ptr %13, align 4
  br label %36

34:                                               ; preds = %24
  %35 = load i32, ptr %12, align 4
  store i32 %35, ptr %13, align 4
  br label %36

36:                                               ; preds = %34, %30
  br label %41

37:                                               ; preds = %21
  %38 = load ptr, ptr %6, align 8
  %39 = load i32, ptr %10, align 4
  %40 = call i32 @fdt_node_offset_by_phandle(ptr noundef %38, i32 noundef %39)
  store i32 %40, ptr %13, align 4
  br label %41

41:                                               ; preds = %37, %36
  %42 = load i32, ptr %13, align 4
  %43 = icmp slt i32 %42, 0
  br i1 %43, label %44, label %48

44:                                               ; preds = %41
  %45 = load i32, ptr %12, align 4
  %46 = icmp eq i32 %45, -1
  br i1 %46, label %47, label %48

47:                                               ; preds = %44
  store i32 -16, ptr %13, align 4
  br label %48

48:                                               ; preds = %47, %44, %41
  %49 = load i32, ptr %13, align 4
  %50 = icmp slt i32 %49, 0
  br i1 %50, label %51, label %53

51:                                               ; preds = %48
  %52 = load i32, ptr %13, align 4
  store i32 %52, ptr %5, align 4
  store i32 1, ptr %14, align 4
  br label %67

53:                                               ; preds = %48
  %54 = load ptr, ptr %9, align 8
  %55 = icmp ne ptr %54, null
  br i1 %55, label %56, label %65

56:                                               ; preds = %53
  %57 = load ptr, ptr %11, align 8
  %58 = icmp ne ptr %57, null
  br i1 %58, label %59, label %61

59:                                               ; preds = %56
  %60 = load ptr, ptr %11, align 8
  br label %62

61:                                               ; preds = %56
  br label %62

62:                                               ; preds = %61, %59
  %63 = phi ptr [ %60, %59 ], [ null, %61 ]
  %64 = load ptr, ptr %9, align 8
  store ptr %63, ptr %64, align 8
  br label %65

65:                                               ; preds = %62, %53
  %66 = load i32, ptr %13, align 4
  store i32 %66, ptr %5, align 4
  store i32 1, ptr %14, align 4
  br label %67

67:                                               ; preds = %65, %51, %20
  call void @llvm.lifetime.end.p0(i64 4, ptr %13) #7
  call void @llvm.lifetime.end.p0(i64 4, ptr %12) #7
  call void @llvm.lifetime.end.p0(i64 8, ptr %11) #7
  call void @llvm.lifetime.end.p0(i64 4, ptr %10) #7
  %68 = load i32, ptr %5, align 4
  ret i32 %68
}